; Function Attrs: mustprogress uwtable
define noundef nonnull align 8 dereferenceable(24) ptr @_ZN4toml2v34pathpLERKS1_(ptr noundef nonnull returned align 8 dereferenceable(24) %0, ptr noundef nonnull readonly align 8 captures(none) dereferenceable(24) %1) local_unnamed_addr #0 align 2 {
  %3 = getelementptr inbounds nuw i8, ptr %0, i64 8
  %4 = load ptr, ptr %3, align 8, !tbaa !182
  %5 = load ptr, ptr %1, align 8, !tbaa !182
  %6 = getelementptr inbounds nuw i8, ptr %1, i64 8
  %7 = load ptr, ptr %6, align 8, !tbaa !182
  %8 = load ptr, ptr %0, align 8, !tbaa !182
  %9 = ptrtoint ptr %4 to i64
  %10 = ptrtoint ptr %8 to i64
  %11 = sub i64 %9, %10
  %12 = getelementptr inbounds i8, ptr %8, i64 %11
  tail call void @_ZNSt6vectorIN4toml2v314path_componentESaIS2_EE15_M_range_insertIN9__gnu_cxx17__normal_iteratorIPKS2_S4_EEEEvNS7_IPS2_S4_EET_SD_St20forward_iterator_tag(ptr noundef nonnull align 8 dereferenceable(24) %0, ptr %12, ptr %5, ptr %7)
  ret ptr %0
}